; ModuleID = '48/988.c'
source_filename = "48/988.c"
target datalayout = "e-m:e-p270:32:32-p271:32:32-p272:64:64-i64:64-f80:128-n8:16:32:64-S128"
target triple = "x86_64-pc-linux-gnu"

@m = common dso_local global i32 0, align 4
@.str = private unnamed_addr constant [6 x i8] c"%d %d\00", align 1
@n = common dso_local global i32 0, align 4
@.str.1 = private unnamed_addr constant [4 x i8] c"%d\0A\00", align 1
@.str.2 = private unnamed_addr constant [4 x i8] c"%d \00", align 1

; Function Attrs: noinline nounwind uwtable
define dso_local i32 @num(i32 %0, i32 %1, i32 %2) #0 {
  %4 = alloca i32, align 4
  %5 = alloca i32, align 4
  %6 = alloca i32, align 4
  %7 = alloca i32, align 4
  %8 = alloca i32, align 4
  %9 = alloca i32, align 4
  %10 = alloca i32, align 4
  store i32 %0, i32* %5, align 4
  store i32 %1, i32* %6, align 4
  store i32 %2, i32* %7, align 4
  %11 = load i32, i32* %5, align 4
  %12 = icmp eq i32 %11, 0
  br i1 %12, label %22, label %13

13:                                               ; preds = %3
  %14 = load i32, i32* %5, align 4
  %15 = icmp eq i32 %14, 10
  br i1 %15, label %22, label %16

16:                                               ; preds = %13
  %17 = load i32, i32* %6, align 4
  %18 = icmp eq i32 %17, 0
  br i1 %18, label %22, label %19

19:                                               ; preds = %16
  %20 = load i32, i32* %6, align 4
  %21 = icmp eq i32 %20, 10
  br i1 %21, label %22, label %23

22:                                               ; preds = %19, %16, %13, %3
  store i32 0, i32* %4, align 4
  br label %73

23:                                               ; preds = %19
  %24 = load i32, i32* %7, align 4
  %25 = icmp eq i32 %24, 0
  br i1 %25, label %26, label %35

26:                                               ; preds = %23
  %27 = load i32, i32* %5, align 4
  %28 = icmp eq i32 %27, 5
  br i1 %28, label %29, label %34

29:                                               ; preds = %26
  %30 = load i32, i32* %6, align 4
  %31 = icmp eq i32 %30, 5
  br i1 %31, label %32, label %34

32:                                               ; preds = %29
  %33 = load i32, i32* @m, align 4
  store i32 %33, i32* %4, align 4
  br label %73

34:                                               ; preds = %29, %26
  store i32 0, i32* %4, align 4
  br label %73

35:                                               ; preds = %23
  %36 = load i32, i32* %5, align 4
  %37 = load i32, i32* %6, align 4
  %38 = load i32, i32* %7, align 4
  %39 = sub nsw i32 %38, 1
  %40 = call i32 @num(i32 %36, i32 %37, i32 %39)
  store i32 %40, i32* %10, align 4
  %41 = load i32, i32* %5, align 4
  %42 = sub nsw i32 %41, 1
  store i32 %42, i32* %8, align 4
  br label %43

43:                                               ; preds = %68, %35
  %44 = load i32, i32* %8, align 4
  %45 = load i32, i32* %5, align 4
  %46 = add nsw i32 %45, 1
  %47 = icmp sle i32 %44, %46
  br i1 %47, label %48, label %71

48:                                               ; preds = %43
  %49 = load i32, i32* %6, align 4
  %50 = sub nsw i32 %49, 1
  store i32 %50, i32* %9, align 4
  br label %51

51:                                               ; preds = %64, %48
  %52 = load i32, i32* %9, align 4
  %53 = load i32, i32* %6, align 4
  %54 = add nsw i32 %53, 1
  %55 = icmp sle i32 %52, %54
  br i1 %55, label %56, label %67

56:                                               ; preds = %51
  %57 = load i32, i32* %10, align 4
  %58 = load i32, i32* %8, align 4
  %59 = load i32, i32* %9, align 4
  %60 = load i32, i32* %7, align 4
  %61 = sub nsw i32 %60, 1
  %62 = call i32 @num(i32 %58, i32 %59, i32 %61)
  %63 = add nsw i32 %57, %62
  store i32 %63, i32* %10, align 4
  br label %64

64:                                               ; preds = %56
  %65 = load i32, i32* %9, align 4
  %66 = add nsw i32 %65, 1
  store i32 %66, i32* %9, align 4
  br label %51

67:                                               ; preds = %51
  br label %68

68:                                               ; preds = %67
  %69 = load i32, i32* %8, align 4
  %70 = add nsw i32 %69, 1
  store i32 %70, i32* %8, align 4
  br label %43

71:                                               ; preds = %43
  %72 = load i32, i32* %10, align 4
  store i32 %72, i32* %4, align 4
  br label %73

73:                                               ; preds = %71, %34, %32, %22
  %74 = load i32, i32* %4, align 4
  ret i32 %74
}

; Function Attrs: noinline nounwind uwtable
define dso_local i32 @main() #0 {
  %1 = alloca i32, align 4
  %2 = alloca i32, align 4
  %3 = alloca i32, align 4
  %4 = alloca i32, align 4
  store i32 0, i32* %1, align 4
  %5 = call i32 (i8*, ...) @__isoc99_scanf(i8* getelementptr inbounds ([6 x i8], [6 x i8]* @.str, i64 0, i64 0), i32* @m, i32* @n)
  store i32 1, i32* %2, align 4
  br label %6

6:                                                ; preds = %31, %0
  %7 = load i32, i32* %2, align 4
  %8 = icmp sle i32 %7, 9
  br i1 %8, label %9, label %34

9:                                                ; preds = %6
  store i32 1, i32* %3, align 4
  br label %10

10:                                               ; preds = %27, %9
  %11 = load i32, i32* %3, align 4
  %12 = icmp sle i32 %11, 9
  br i1 %12, label %13, label %30

13:                                               ; preds = %10
  %14 = load i32, i32* %2, align 4
  %15 = load i32, i32* %3, align 4
  %16 = load i32, i32* @n, align 4
  %17 = call i32 @num(i32 %14, i32 %15, i32 %16)
  store i32 %17, i32* %4, align 4
  %18 = load i32, i32* %3, align 4
  %19 = icmp eq i32 %18, 9
  br i1 %19, label %20, label %23

20:                                               ; preds = %13
  %21 = load i32, i32* %4, align 4
  %22 = call i32 (i8*, ...) @printf(i8* getelementptr inbounds ([4 x i8], [4 x i8]* @.str.1, i64 0, i64 0), i32 %21)
  br label %26

23:                                               ; preds = %13
  %24 = load i32, i32* %4, align 4
  %25 = call i32 (i8*, ...) @printf(i8* getelementptr inbounds ([4 x i8], [4 x i8]* @.str.2, i64 0, i64 0), i32 %24)
  br label %26

26:                                               ; preds = %23, %20
  br label %27

27:                                               ; preds = %26
  %28 = load i32, i32* %3, align 4
  %29 = add nsw i32 %28, 1
  store i32 %29, i32* %3, align 4
  br label %10

30:                                               ; preds = %10
  br label %31

31:                                               ; preds = %30
  %32 = load i32, i32* %2, align 4
  %33 = add nsw i32 %32, 1
  store i32 %33, i32* %2, align 4
  br label %6

34:                                               ; preds = %6
  ret i32 0
}

declare dso_local i32 @__isoc99_scanf(i8*, ...) #1

declare dso_local i32 @printf(i8*, ...) #1


!llvm.module.flags = !{!0}
!llvm.ident = !{!1}

!0 = !{i32 1, !"wchar_size", i32 4}
!1 = !{!"clang version 10.0.0-4ubuntu1 "}
